; Function Attrs: nounwind uwtable
define ptr @l___private_Lake_Util_Name_0__Lean_Name_appendCore_match__1_splitter___rarg(ptr noundef %0, ptr noundef %1, ptr noundef %2, ptr noundef %3, ptr noundef %4) #0 {
  %6 = ptrtoint ptr %1 to i64
  %7 = and i64 %6, 1
  %.not.i55 = icmp eq i64 %7, 0
  br i1 %.not.i55, label %11, label %8

8:                                                ; preds = %5
  %9 = lshr i64 %6, 1
  %10 = trunc i64 %9 to i32
  br label %lean_obj_tag.exit

11:                                               ; preds = %5
  %12 = getelementptr i8, ptr %1, i64 4
  %.val.i = load i32, ptr %12, align 4
  %13 = lshr i32 %.val.i, 24
  br label %lean_obj_tag.exit

lean_obj_tag.exit:                                ; preds = %8, %11
  %.0.i = phi i32 [ %10, %8 ], [ %13, %11 ]
  switch i32 %.0.i, label %81 [
    i32 0, label %14
    i32 1, label %34
  ]

14:                                               ; preds = %lean_obj_tag.exit
  %15 = ptrtoint ptr %4 to i64
  %16 = and i64 %15, 1
  %.not71 = icmp eq i64 %16, 0
  br i1 %.not71, label %17, label %lean_dec.exit40

17:                                               ; preds = %14
  %18 = load i32, ptr %4, align 4, !tbaa !4
  %19 = icmp sgt i32 %18, 1
  br i1 %19, label %20, label %22, !prof !9

20:                                               ; preds = %17
  %21 = add nsw i32 %18, -1
  store i32 %21, ptr %4, align 4, !tbaa !4
  br label %lean_dec.exit40

22:                                               ; preds = %17
  %.not.i = icmp eq i32 %18, 0
  br i1 %.not.i, label %lean_dec.exit40, label %23

23:                                               ; preds = %22
  tail call void @lean_dec_ref_cold(ptr noundef nonnull %4) #5
  br label %lean_dec.exit40

lean_dec.exit40:                                  ; preds = %23, %22, %20, %14
  %24 = ptrtoint ptr %3 to i64
  %25 = and i64 %24, 1
  %.not72 = icmp eq i64 %25, 0
  br i1 %.not72, label %26, label %lean_dec.exit39

26:                                               ; preds = %lean_dec.exit40
  %27 = load i32, ptr %3, align 4, !tbaa !4
  %28 = icmp sgt i32 %27, 1
  br i1 %28, label %29, label %31, !prof !9

29:                                               ; preds = %26
  %30 = add nsw i32 %27, -1
  store i32 %30, ptr %3, align 4, !tbaa !4
  br label %lean_dec.exit39

31:                                               ; preds = %26
  %.not.i41 = icmp eq i32 %27, 0
  br i1 %.not.i41, label %lean_dec.exit39, label %32

32:                                               ; preds = %31
  tail call void @lean_dec_ref_cold(ptr noundef nonnull %3) #5
  br label %lean_dec.exit39

lean_dec.exit39:                                  ; preds = %32, %31, %29, %lean_dec.exit40
  %33 = tail call ptr @lean_apply_1(ptr noundef %2, ptr noundef %0) #5
  br label %128

34:                                               ; preds = %lean_obj_tag.exit
  %35 = ptrtoint ptr %4 to i64
  %36 = and i64 %35, 1
  %.not = icmp eq i64 %36, 0
  br i1 %.not, label %37, label %lean_dec.exit38

37:                                               ; preds = %34
  %38 = load i32, ptr %4, align 4, !tbaa !4
  %39 = icmp sgt i32 %38, 1
  br i1 %39, label %40, label %42, !prof !9

40:                                               ; preds = %37
  %41 = add nsw i32 %38, -1
  store i32 %41, ptr %4, align 4, !tbaa !4
  br label %lean_dec.exit38

42:                                               ; preds = %37
  %.not.i43 = icmp eq i32 %38, 0
  br i1 %.not.i43, label %lean_dec.exit38, label %43

43:                                               ; preds = %42
  tail call void @lean_dec_ref_cold(ptr noundef nonnull %4) #5
  br label %lean_dec.exit38

lean_dec.exit38:                                  ; preds = %43, %42, %40, %34
  %44 = ptrtoint ptr %2 to i64
  %45 = and i64 %44, 1
  %.not67 = icmp eq i64 %45, 0
  br i1 %.not67, label %46, label %lean_dec.exit37

46:                                               ; preds = %lean_dec.exit38
  %47 = load i32, ptr %2, align 4, !tbaa !4
  %48 = icmp sgt i32 %47, 1
  br i1 %48, label %49, label %51, !prof !9

49:                                               ; preds = %46
  %50 = add nsw i32 %47, -1
  store i32 %50, ptr %2, align 4, !tbaa !4
  br label %lean_dec.exit37

51:                                               ; preds = %46
  %.not.i45 = icmp eq i32 %47, 0
  br i1 %.not.i45, label %lean_dec.exit37, label %52

52:                                               ; preds = %51
  tail call void @lean_dec_ref_cold(ptr noundef nonnull %2) #5
  br label %lean_dec.exit37

lean_dec.exit37:                                  ; preds = %52, %51, %49, %lean_dec.exit38
  %53 = getelementptr inbounds nuw i8, ptr %1, i64 8
  %54 = load ptr, ptr %53, align 8, !tbaa !10
  %55 = ptrtoint ptr %54 to i64
  %56 = and i64 %55, 1
  %.not68 = icmp eq i64 %56, 0
  br i1 %.not68, label %57, label %lean_inc.exit33

57:                                               ; preds = %lean_dec.exit37
  %.val.i56 = load i32, ptr %54, align 4, !tbaa !4
  %58 = icmp sgt i32 %.val.i56, 0
  br i1 %58, label %59, label %61, !prof !9

59:                                               ; preds = %57
  %60 = add nuw i32 %.val.i56, 1
  store i32 %60, ptr %54, align 4, !tbaa !4
  br label %lean_inc.exit33

61:                                               ; preds = %57
  %.not.i57 = icmp eq i32 %.val.i56, 0
  br i1 %.not.i57, label %lean_inc.exit33, label %62

62:                                               ; preds = %61
  tail call void @lean_inc_ref_cold(ptr noundef nonnull %54) #5
  br label %lean_inc.exit33

lean_inc.exit33:                                  ; preds = %62, %61, %59, %lean_dec.exit37
  %63 = getelementptr inbounds nuw i8, ptr %1, i64 16
  %64 = load ptr, ptr %63, align 8, !tbaa !10
  %65 = ptrtoint ptr %64 to i64
  %66 = and i64 %65, 1
  %.not69 = icmp eq i64 %66, 0
  br i1 %.not69, label %67, label %lean_inc.exit32

67:                                               ; preds = %lean_inc.exit33
  %.val.i58 = load i32, ptr %64, align 4, !tbaa !4
  %68 = icmp sgt i32 %.val.i58, 0
  br i1 %68, label %69, label %71, !prof !9

69:                                               ; preds = %67
  %70 = add nuw i32 %.val.i58, 1
  store i32 %70, ptr %64, align 4, !tbaa !4
  br label %lean_inc.exit32

71:                                               ; preds = %67
  %.not.i59 = icmp eq i32 %.val.i58, 0
  br i1 %.not.i59, label %lean_inc.exit32, label %72

72:                                               ; preds = %71
  tail call void @lean_inc_ref_cold(ptr noundef nonnull %64) #5
  br label %lean_inc.exit32

lean_inc.exit32:                                  ; preds = %72, %71, %69, %lean_inc.exit33
  br i1 %.not.i55, label %73, label %lean_dec.exit36

73:                                               ; preds = %lean_inc.exit32
  %74 = load i32, ptr %1, align 4, !tbaa !4
  %75 = icmp sgt i32 %74, 1
  br i1 %75, label %76, label %78, !prof !9

76:                                               ; preds = %73
  %77 = add nsw i32 %74, -1
  store i32 %77, ptr %1, align 4, !tbaa !4
  br label %lean_dec.exit36

78:                                               ; preds = %73
  %.not.i47 = icmp eq i32 %74, 0
  br i1 %.not.i47, label %lean_dec.exit36, label %79

79:                                               ; preds = %78
  tail call void @lean_dec_ref_cold(ptr noundef nonnull %1) #5
  br label %lean_dec.exit36

lean_dec.exit36:                                  ; preds = %79, %78, %76, %lean_inc.exit32
  %80 = tail call ptr @lean_apply_3(ptr noundef %3, ptr noundef %0, ptr noundef %54, ptr noundef %64) #5
  br label %128

81:                                               ; preds = %lean_obj_tag.exit
  %82 = ptrtoint ptr %3 to i64
  %83 = and i64 %82, 1
  %.not73 = icmp eq i64 %83, 0
  br i1 %.not73, label %84, label %lean_dec.exit35

84:                                               ; preds = %81
  %85 = load i32, ptr %3, align 4, !tbaa !4
  %86 = icmp sgt i32 %85, 1
  br i1 %86, label %87, label %89, !prof !9

87:                                               ; preds = %84
  %88 = add nsw i32 %85, -1
  store i32 %88, ptr %3, align 4, !tbaa !4
  br label %lean_dec.exit35

89:                                               ; preds = %84
  %.not.i49 = icmp eq i32 %85, 0
  br i1 %.not.i49, label %lean_dec.exit35, label %90

90:                                               ; preds = %89
  tail call void @lean_dec_ref_cold(ptr noundef nonnull %3) #5
  br label %lean_dec.exit35

lean_dec.exit35:                                  ; preds = %90, %89, %87, %81
  %91 = ptrtoint ptr %2 to i64
  %92 = and i64 %91, 1
  %.not74 = icmp eq i64 %92, 0
  br i1 %.not74, label %93, label %lean_dec.exit34

93:                                               ; preds = %lean_dec.exit35
  %94 = load i32, ptr %2, align 4, !tbaa !4
  %95 = icmp sgt i32 %94, 1
  br i1 %95, label %96, label %98, !prof !9

96:                                               ; preds = %93
  %97 = add nsw i32 %94, -1
  store i32 %97, ptr %2, align 4, !tbaa !4
  br label %lean_dec.exit34

98:                                               ; preds = %93
  %.not.i51 = icmp eq i32 %94, 0
  br i1 %.not.i51, label %lean_dec.exit34, label %99

99:                                               ; preds = %98
  tail call void @lean_dec_ref_cold(ptr noundef nonnull %2) #5
  br label %lean_dec.exit34

lean_dec.exit34:                                  ; preds = %99, %98, %96, %lean_dec.exit35
  %100 = getelementptr inbounds nuw i8, ptr %1, i64 8
  %101 = load ptr, ptr %100, align 8, !tbaa !10
  %102 = ptrtoint ptr %101 to i64
  %103 = and i64 %102, 1
  %.not75 = icmp eq i64 %103, 0
  br i1 %.not75, label %104, label %lean_inc.exit31

104:                                              ; preds = %lean_dec.exit34
  %.val.i61 = load i32, ptr %101, align 4, !tbaa !4
  %105 = icmp sgt i32 %.val.i61, 0
  br i1 %105, label %106, label %108, !prof !9

106:                                              ; preds = %104
  %107 = add nuw i32 %.val.i61, 1
  store i32 %107, ptr %101, align 4, !tbaa !4
  br label %lean_inc.exit31

108:                                              ; preds = %104
  %.not.i62 = icmp eq i32 %.val.i61, 0
  br i1 %.not.i62, label %lean_inc.exit31, label %109

109:                                              ; preds = %108
  tail call void @lean_inc_ref_cold(ptr noundef nonnull %101) #5
  br label %lean_inc.exit31

lean_inc.exit31:                                  ; preds = %109, %108, %106, %lean_dec.exit34
  %110 = getelementptr inbounds nuw i8, ptr %1, i64 16
  %111 = load ptr, ptr %110, align 8, !tbaa !10
  %112 = ptrtoint ptr %111 to i64
  %113 = and i64 %112, 1
  %.not76 = icmp eq i64 %113, 0
  br i1 %.not76, label %114, label %lean_inc.exit

114:                                              ; preds = %lean_inc.exit31
  %.val.i64 = load i32, ptr %111, align 4, !tbaa !4
  %115 = icmp sgt i32 %.val.i64, 0
  br i1 %115, label %116, label %118, !prof !9

116:                                              ; preds = %114
  %117 = add nuw i32 %.val.i64, 1
  store i32 %117, ptr %111, align 4, !tbaa !4
  br label %lean_inc.exit

118:                                              ; preds = %114
  %.not.i65 = icmp eq i32 %.val.i64, 0
  br i1 %.not.i65, label %lean_inc.exit, label %119

119:                                              ; preds = %118
  tail call void @lean_inc_ref_cold(ptr noundef nonnull %111) #5
  br label %lean_inc.exit

lean_inc.exit:                                    ; preds = %119, %118, %116, %lean_inc.exit31
  br i1 %.not.i55, label %120, label %lean_dec.exit

120:                                              ; preds = %lean_inc.exit
  %121 = load i32, ptr %1, align 4, !tbaa !4
  %122 = icmp sgt i32 %121, 1
  br i1 %122, label %123, label %125, !prof !9

123:                                              ; preds = %120
  %124 = add nsw i32 %121, -1
  store i32 %124, ptr %1, align 4, !tbaa !4
  br label %lean_dec.exit

125:                                              ; preds = %120
  %.not.i53 = icmp eq i32 %121, 0
  br i1 %.not.i53, label %lean_dec.exit, label %126

126:                                              ; preds = %125
  tail call void @lean_dec_ref_cold(ptr noundef nonnull %1) #5
  br label %lean_dec.exit

lean_dec.exit:                                    ; preds = %126, %125, %123, %lean_inc.exit
  %127 = tail call ptr @lean_apply_3(ptr noundef %4, ptr noundef %0, ptr noundef %101, ptr noundef %111) #5
  br label %128

128:                                              ; preds = %lean_dec.exit, %lean_dec.exit36, %lean_dec.exit39
  %.0 = phi ptr [ %127, %lean_dec.exit ], [ %80, %lean_dec.exit36 ], [ %33, %lean_dec.exit39 ]
  ret ptr %.0
}